Certificate:
    Data:
        Version: 3 (0x2)
        Serial Number: 1 (0x1)
    Signature Algorithm: sha256WithRSAEncryption
        Issuer: C=PL, ST=Malopolska, L=Krakow, CN=MongooseIM Fake CA
        Validity
            Not Before: Feb 12 13:59:41 2018 GMT
            Not After : Nov  8 13:59:41 2020 GMT
        Subject: C=PL, ST=Malopolska, L=Krakow, CN=MongooseIM Server
        Subject Public Key Info:
            Public Key Algorithm: rsaEncryption
                Public-Key: (2048 bit)
                Modulus:
                    00:9b:f3:1d:18:6e:04:a5:f0:78:96:23:6e:ae:e1:
                    a9:b4:0b:8c:98:8f:01:41:4e:96:11:28:f5:c5:9c:
                    f7:4c:ce:03:85:cf:80:14:ee:66:fa:b0:48:9b:5b:
                    7f:b9:83:e3:f0:5b:33:f4:40:22:2d:2d:77:cd:0e:
                    0a:32:d4:cc:e2:c5:f1:a6:27:51:0d:b8:bd:6a:87:
                    74:d0:d2:b6:c3:fe:e4:05:99:ee:bd:da:89:41:9e:
                    ea:13:68:77:19:63:51:2a:05:4a:90:ad:e1:50:6d:
                    a2:64:a9:7b:b8:73:59:ac:b6:54:2f:5e:79:0e:6a:
                    ec:d7:64:b1:50:b4:42:d6:1e:e3:81:67:f8:55:b8:
                    00:87:f5:c4:f4:16:ea:d8:e8:4a:84:03:73:04:68:
                    7e:2c:1c:6c:8b:a9:6e:dc:07:88:b6:ab:a7:01:7a:
                    73:c4:a1:71:5d:24:19:59:e6:5e:58:f5:63:1f:df:
                    0f:3c:ca:c1:7f:16:1a:50:93:e2:02:29:aa:49:c6:
                    3c:f9:fa:94:ad:9b:96:46:7c:d3:95:42:b2:4c:1b:
                    34:dc:52:3f:da:8f:cb:58:70:00:a3:e7:28:4c:b6:
                    34:08:19:4e:85:b1:1d:f8:42:27:2c:1c:df:45:a0:
                    11:1f:9a:58:5e:17:ce:88:e0:e4:08:65:a2:2a:54:
                    d0:39
                Exponent: 65537 (0x10001)
        X509v3 extensions:
            X509v3 Subject Key Identifier: 
                DF:85:58:E6:60:E6:C1:40:EF:04:D8:A3:A1:0F:33:27:31:5D:3C:30
            X509v3 Authority Key Identifier: 
                DirName:/C=PL/ST=Malopolska/L=Krakow/CN=MongooseIM Fake CA
                serial:AC:D8:68:34:27:7A:B7:E4

            X509v3 Basic Constraints: 
                CA:FALSE
            X509v3 Key Usage: 
                Digital Signature, Key Encipherment
            X509v3 Subject Alternative Name: 
                DNS:localhost
            Netscape Comment: 
                Fake Dev-Only Certificate
    Signature Algorithm: sha256WithRSAEncryption
         70:ef:a9:e8:18:a9:3c:0f:a8:15:7c:be:14:94:e0:68:9c:78:
         2e:0d:69:8d:4c:57:0e:fe:53:9c:df:91:07:20:43:89:54:50:
         39:da:ae:df:af:74:2b:58:a1:08:e1:0a:38:45:08:e5:55:1f:
         6f:28:79:ca:8f:2f:8a:cc:31:f7:3a:ac:48:ba:69:c5:8d:b5:
         dd:cc:2d:c8:99:28:be:ac:fb:cf:52:2e:eb:76:0c:92:3a:a0:
         e3:48:b9:e1:4a:2b:ff:f0:bb:40:42:84:bb:8d:e8:24:85:89:
         83:09:2b:cf:8a:0e:32:b7:9e:e0:4c:5c:be:e2:b0:d2:9d:39:
         1a:32:48:24:ea:69:8d:4c:9f:09:d6:ef:32:ac:99:0e:aa:54:
         53:e3:57:dd:e5:a1:c9:d9:5c:73:59:e2:46:e6:3e:f5:15:36:
         9d:f2:e0:81:47:31:af:71:17:e5:58:2b:84:7d:67:3b:2d:3a:
         3d:69:a9:8a:f5:c1:5f:eb:83:ab:12:e3:65:fd:e5:35:03:fd:
         fe:1b:a8:33:34:ed:31:65:14:69:15:a3:6a:bb:01:fe:46:f7:
         55:bb:96:9f:49:cf:a9:31:be:19:87:41:e7:c3:9e:96:32:1c:
         02:85:10:a9:82:e7:af:46:8c:b0:5b:35:9e:66:2a:24:c3:9d:
         12:b6:a4:8d
-----BEGIN CERTIFICATE-----
MIIEATCCAumgAwIBAgIBATANBgkqhkiG9w0BAQsFADBQMQswCQYDVQQGEwJQTDET
MBEGA1UECAwKTWFsb3BvbHNrYTEPMA0GA1UEBwwGS3Jha293MRswGQYDVQQDDBJN
b25nb29zZUlNIEZha2UgQ0EwHhcNMTgwMjEyMTM1OTQxWhcNMjAxMTA4MTM1OTQx
WjBPMQswCQYDVQQGEwJQTDETMBEGA1UECAwKTWFsb3BvbHNrYTEPMA0GA1UEBwwG
S3Jha293MRowGAYDVQQDDBFNb25nb29zZUlNIFNlcnZlcjCCASIwDQYJKoZIhvcN
AQEBBQADggEPADCCAQoCggEBAJvzHRhuBKXweJYjbq7hqbQLjJiPAUFOlhEo9cWc
90zOA4XPgBTuZvqwSJtbf7mD4/BbM/RAIi0td80OCjLUzOLF8aYnUQ24vWqHdNDS
tsP+5AWZ7r3aiUGe6hNodxljUSoFSpCt4VBtomSpe7hzWay2VC9eeQ5q7NdksVC0
QtYe44Fn+FW4AIf1xPQW6tjoSoQDcwRofiwcbIupbtwHiLarpwF6c8ShcV0kGVnm
Xlj1Yx/fDzzKwX8WGlCT4gIpqknGPPn6lK2blkZ805VCskwbNNxSP9qPy1hwAKPn
KEy2NAgZToWxHfhCJywc30WgER+aWF4Xzojg5AhloipU0DkCAwEAAaOB5jCB4zAd
BgNVHQ4EFgQU34VY5mDmwUDvBNijoQ8zJzFdPDAwagYDVR0jBGMwYaFUpFIwUDEL
MAkGA1UEBhMCUEwxEzARBgNVBAgMCk1hbG9wb2xza2ExDzANBgNVBAcMBktyYWtv
dzEbMBkGA1UEAwwSTW9uZ29vc2VJTSBGYWtlIENBggkArNhoNCd6t+QwCQYDVR0T
BAIwADALBgNVHQ8EBAMCBaAwFAYDVR0RBA0wC4IJbG9jYWxob3N0MCgGCWCGSAGG
+EIBDQQbFhlGYWtlIERldi1Pbmx5IENlcnRpZmljYXRlMA0GCSqGSIb3DQEBCwUA
A4IBAQBw76noGKk8D6gVfL4UlOBonHguDWmNTFcO/lOc35EHIEOJVFA52q7fr3Qr
WKEI4Qo4RQjlVR9vKHnKjy+KzDH3OqxIumnFjbXdzC3ImSi+rPvPUi7rdgySOqDj
SLnhSiv/8LtAQoS7jegkhYmDCSvPig4yt57gTFy+4rDSnTkaMkgk6mmNTJ8J1u8y
rJkOqlRT41fd5aHJ2VxzWeJG5j71FTad8uCBRzGvcRflWCuEfWc7LTo9aamK9cFf
64OrEuNl/eU1A/3+G6gzNO0xZRRpFaNquwH+RvdVu5afSc+pMb4Zh0Hnw56WMhwC
hRCpguevRoywWzWeZiokw50StqSN
-----END CERTIFICATE-----
