Certificate:
    Data:
        Version: 3 (0x2)
        Serial Number: 1 (0x1)
    Signature Algorithm: sha256WithRSAEncryption
        Issuer: C=PL, ST=Malopolska, L=Krakow, CN=MongooseIM Fake CA
        Validity
            Not Before: Jan 23 08:16:23 2018 GMT
            Not After : Oct 19 08:16:23 2020 GMT
        Subject: C=PL, ST=Malopolska, L=Krakow, CN=MongooseIM Server
        Subject Public Key Info:
            Public Key Algorithm: rsaEncryption
                Public-Key: (2048 bit)
                Modulus:
                    00:a8:0b:c8:eb:9c:94:f6:2e:08:45:9e:29:bc:1a:
                    12:4c:72:1c:c2:0a:e6:8c:6f:6c:51:f2:a0:f0:5d:
                    3c:0a:16:06:c2:a0:74:44:0b:bb:54:2a:ac:9a:ab:
                    09:82:16:d0:1e:ae:ef:9a:9c:a1:23:6a:d7:43:5b:
                    dc:b0:5c:e4:68:37:6c:ea:ff:a9:c9:c4:97:c7:f6:
                    35:9c:6b:0d:71:fd:d3:cb:e4:e2:b0:08:c1:a3:b7:
                    25:bc:0a:f4:63:03:4e:b4:87:7b:c6:87:7a:c1:e1:
                    b5:16:3c:df:29:9c:c7:ea:bd:70:21:46:a6:20:6e:
                    16:61:0b:0b:b6:5b:7b:55:70:22:1e:67:48:91:1d:
                    74:8c:4f:09:79:78:0c:71:21:ba:8a:8d:1f:0e:17:
                    a8:be:6b:3a:97:27:a5:0a:ba:6a:52:c0:4b:f6:e1:
                    65:4a:54:7f:9b:a6:55:d3:9b:21:4a:52:95:0c:c1:
                    77:be:ec:b5:96:45:43:3c:4e:f9:99:cd:5e:e7:d8:
                    cf:65:67:df:67:f2:79:86:71:d9:23:42:b6:ce:71:
                    d6:9c:d6:c0:39:50:77:f4:65:40:d8:68:25:2e:42:
                    9b:29:83:b8:63:9c:1d:d5:d7:17:94:77:d3:82:f7:
                    c4:9f:1c:4a:c9:72:7f:8c:89:c4:64:1e:90:6d:d7:
                    09:ed
                Exponent: 65537 (0x10001)
        X509v3 extensions:
            X509v3 Subject Key Identifier: 
                F0:34:CD:ED:8A:27:74:45:68:5E:FA:3B:05:55:7B:38:F8:48:35:50
            X509v3 Authority Key Identifier: 
                DirName:/C=PL/ST=Malopolska/L=Krakow/CN=MongooseIM Fake CA
                serial:87:E3:A5:A7:A4:07:18:16

            X509v3 Basic Constraints: 
                CA:FALSE
            X509v3 Key Usage: 
                Digital Signature, Key Encipherment
            X509v3 Subject Alternative Name: 
                DNS:localhost
            Netscape Comment: 
                Fake Dev-Only Certificate
    Signature Algorithm: sha256WithRSAEncryption
         7e:58:8e:61:ec:59:f9:d2:4c:43:2c:4a:fb:04:aa:f4:6d:29:
         5d:1b:c9:46:d2:00:d3:b9:56:32:04:39:af:b0:06:98:a4:51:
         fe:82:49:8b:bf:ba:a6:d2:fe:cb:2f:24:16:e7:0a:0f:d1:5b:
         04:51:ac:7d:aa:c7:5d:05:5a:e4:ea:3b:9d:5c:94:1d:38:21:
         ce:73:0b:98:5a:45:20:75:c0:12:81:c4:08:b2:ee:b5:fc:4a:
         7c:96:e8:23:6b:a3:9b:07:df:7a:01:ec:f9:01:f3:f9:28:f6:
         f1:97:0c:e1:50:88:17:f2:36:50:fd:a3:10:f7:70:84:96:a1:
         5d:c4:0c:27:22:d5:9b:38:13:57:c2:54:06:35:aa:02:42:f8:
         cc:33:eb:a3:af:15:49:69:6f:4a:de:49:05:18:b5:5b:1a:5a:
         d5:e7:97:ef:b4:14:ea:92:9d:e2:0a:f9:c0:46:3b:f4:50:b4:
         3b:52:a6:09:64:23:5d:d8:8b:9f:fc:31:c8:25:1c:e2:f2:b0:
         a8:07:63:df:c4:b1:b8:03:f8:62:84:69:46:72:6d:66:ce:27:
         52:81:f1:27:cf:09:0b:73:70:ef:a9:a5:e8:18:1e:42:48:1b:
         7a:ab:cb:04:d9:3f:4a:87:1d:a3:ca:2d:62:d8:d7:bd:1f:c5:
         33:30:4e:cb
-----BEGIN CERTIFICATE-----
MIIEATCCAumgAwIBAgIBATANBgkqhkiG9w0BAQsFADBQMQswCQYDVQQGEwJQTDET
MBEGA1UECAwKTWFsb3BvbHNrYTEPMA0GA1UEBwwGS3Jha293MRswGQYDVQQDDBJN
b25nb29zZUlNIEZha2UgQ0EwHhcNMTgwMTIzMDgxNjIzWhcNMjAxMDE5MDgxNjIz
WjBPMQswCQYDVQQGEwJQTDETMBEGA1UECAwKTWFsb3BvbHNrYTEPMA0GA1UEBwwG
S3Jha293MRowGAYDVQQDDBFNb25nb29zZUlNIFNlcnZlcjCCASIwDQYJKoZIhvcN
AQEBBQADggEPADCCAQoCggEBAKgLyOuclPYuCEWeKbwaEkxyHMIK5oxvbFHyoPBd
PAoWBsKgdEQLu1QqrJqrCYIW0B6u75qcoSNq10Nb3LBc5Gg3bOr/qcnEl8f2NZxr
DXH908vk4rAIwaO3JbwK9GMDTrSHe8aHesHhtRY83ymcx+q9cCFGpiBuFmELC7Zb
e1VwIh5nSJEddIxPCXl4DHEhuoqNHw4XqL5rOpcnpQq6alLAS/bhZUpUf5umVdOb
IUpSlQzBd77stZZFQzxO+ZnNXufYz2Vn32fyeYZx2SNCts5x1pzWwDlQd/RlQNho
JS5CmymDuGOcHdXXF5R304L3xJ8cSslyf4yJxGQekG3XCe0CAwEAAaOB5jCB4zAd
BgNVHQ4EFgQU8DTN7YondEVoXvo7BVV7OPhINVAwagYDVR0jBGMwYaFUpFIwUDEL
MAkGA1UEBhMCUEwxEzARBgNVBAgMCk1hbG9wb2xza2ExDzANBgNVBAcMBktyYWtv
dzEbMBkGA1UEAwwSTW9uZ29vc2VJTSBGYWtlIENBggkAh+Olp6QHGBYwCQYDVR0T
BAIwADALBgNVHQ8EBAMCBaAwFAYDVR0RBA0wC4IJbG9jYWxob3N0MCgGCWCGSAGG
+EIBDQQbFhlGYWtlIERldi1Pbmx5IENlcnRpZmljYXRlMA0GCSqGSIb3DQEBCwUA
A4IBAQB+WI5h7Fn50kxDLEr7BKr0bSldG8lG0gDTuVYyBDmvsAaYpFH+gkmLv7qm
0v7LLyQW5woP0VsEUax9qsddBVrk6judXJQdOCHOcwuYWkUgdcASgcQIsu61/Ep8
lugja6ObB996Aez5AfP5KPbxlwzhUIgX8jZQ/aMQ93CElqFdxAwnItWbOBNXwlQG
NaoCQvjMM+ujrxVJaW9K3kkFGLVbGlrV55fvtBTqkp3iCvnARjv0ULQ7UqYJZCNd
2Iuf/DHIJRzi8rCoB2PfxLG4A/hihGlGcm1mzidSgfEnzwkLc3DvqaXoGB5CSBt6
q8sE2T9Khx2jyi1i2Ne9H8UzME7L
-----END CERTIFICATE-----
